target datalayout = "e-m:e-p270:32:32-p271:32:32-p272:64:64-i64:64-i128:128-f80:128-n8:16:32:64-S128"
target triple = "x86_64-pc-linux-gnu"

%class.MemReporterBase = type { i64, ptr, %class.StreamAutoIndentor }
%class.StreamAutoIndentor = type <{ ptr, i8, [7 x i8] }>
%class.MemoryCounter = type { i64, i64, i64, i64 }
%"struct.Atomic::LoadImpl" = type { i8 }
%"struct.Atomic::PlatformLoad" = type { i8 }

@.str.11 = private unnamed_addr constant [11 x i8] c" (at peak)\00", align 1
@.str.12 = private unnamed_addr constant [19 x i8] c" (peak=%lu%s #%lu)\00", align 1
@.str.16 = private unnamed_addr constant [19 x i8] c"(arena=%lu%s #%lu)\00", align 1

; Function Attrs: mustprogress nounwind uwtable
define linkonce_odr hidden noundef i64 @_ZNK6Atomic12PlatformLoadILm8EEclImEET_PVKS3_(ptr noundef nonnull align 1 dereferenceable(1) %0, ptr noundef %1) #1 comdat align 2 {
  %3 = alloca ptr, align 8
  %4 = alloca ptr, align 8
  store ptr %0, ptr %3, align 8
  store ptr %1, ptr %4, align 8
  %5 = load ptr, ptr %4, align 8
  %6 = load volatile i64, ptr %5, align 8
  ret i64 %6
}

; Function Attrs: mustprogress nounwind uwtable
define linkonce_odr hidden noundef i64 @_ZNK6Atomic8LoadImplImNS_12PlatformLoadILm8EEEvEclEPVKm(ptr noundef nonnull align 1 dereferenceable(1) %0, ptr noundef %1) #1 comdat align 2 {
  %3 = alloca ptr, align 8
  %4 = alloca ptr, align 8
  %5 = alloca %"struct.Atomic::PlatformLoad", align 1
  store ptr %0, ptr %3, align 8
  store ptr %1, ptr %4, align 8
  %6 = load ptr, ptr %4, align 8
  %7 = call noundef i64 @_ZNK6Atomic12PlatformLoadILm8EEclImEET_PVKS3_(ptr noundef nonnull align 1 dereferenceable(1) %5, ptr noundef %6)
  ret i64 %7
}

; Function Attrs: mustprogress nounwind uwtable
define linkonce_odr hidden noundef i64 @_ZN7NMTUtil15amount_in_scaleEmm(i64 noundef %0, i64 noundef %1) #1 comdat align 2 {
  %3 = alloca i64, align 8
  %4 = alloca i64, align 8
  store i64 %0, ptr %3, align 8
  store i64 %1, ptr %4, align 8
  %5 = load i64, ptr %3, align 8
  %6 = load i64, ptr %4, align 8
  %7 = udiv i64 %6, 2
  %8 = add i64 %5, %7
  %9 = load i64, ptr %4, align 8
  %10 = udiv i64 %8, %9
  ret i64 %10
}

; Function Attrs: mustprogress nounwind uwtable
define linkonce_odr hidden noundef i64 @_ZN6Atomic4loadImEET_PVKS1_(ptr noundef %0) #1 comdat align 2 {
  %2 = alloca ptr, align 8
  %3 = alloca %"struct.Atomic::LoadImpl", align 1
  store ptr %0, ptr %2, align 8
  %4 = load ptr, ptr %2, align 8
  %5 = call noundef i64 @_ZNK6Atomic8LoadImplImNS_12PlatformLoadILm8EEEvEclEPVKm(ptr noundef nonnull align 1 dereferenceable(1) %3, ptr noundef %4)
  ret i64 %5
}

; Function Attrs: mustprogress nounwind uwtable
define linkonce_odr hidden noundef i64 @_ZNK13MemoryCounter10peak_countEv(ptr noundef nonnull align 8 dereferenceable(32) %0) #1 comdat align 2 {
  %2 = alloca ptr, align 8
  store ptr %0, ptr %2, align 8
  %3 = load ptr, ptr %2, align 8
  %4 = getelementptr inbounds %class.MemoryCounter, ptr %3, i32 0, i32 2
  %5 = call noundef i64 @_ZN6Atomic4loadImEET_PVKS1_(ptr noundef %4)
  ret i64 %5
}

; Function Attrs: mustprogress nounwind uwtable
define linkonce_odr hidden void @_ZN12outputStream9print_rawEPKc(ptr noundef nonnull align 8 dereferenceable(56) %0, ptr noundef %1) #1 comdat align 2 {
  %3 = alloca ptr, align 8
  %4 = alloca ptr, align 8
  store ptr %0, ptr %3, align 8
  store ptr %1, ptr %4, align 8
  %5 = load ptr, ptr %3, align 8
  %6 = load ptr, ptr %4, align 8
  %7 = load ptr, ptr %4, align 8
  %8 = call i64 @strlen(ptr noundef %7) #5
  call void @_ZN12outputStream9print_rawEPKcm(ptr noundef nonnull align 8 dereferenceable(56) %5, ptr noundef %6, i64 noundef %8)
  ret void
}

; Function Attrs: mustprogress nounwind uwtable
define linkonce_odr hidden noundef i64 @_ZNK13MemoryCounter9peak_sizeEv(ptr noundef nonnull align 8 dereferenceable(32) %0) #1 comdat align 2 {
  %2 = alloca ptr, align 8
  store ptr %0, ptr %2, align 8
  %3 = load ptr, ptr %2, align 8
  %4 = getelementptr inbounds %class.MemoryCounter, ptr %3, i32 0, i32 3
  %5 = call noundef i64 @_ZN6Atomic4loadImEET_PVKS1_(ptr noundef %4)
  ret i64 %5
}

; Function Attrs: mustprogress nounwind uwtable
define linkonce_odr hidden noundef i64 @_ZNK15MemReporterBase23amount_in_current_scaleEm(ptr noundef nonnull align 8 dereferenceable(32) %0, i64 noundef %1) #1 comdat align 2 {
  %3 = alloca ptr, align 8
  %4 = alloca i64, align 8
  store ptr %0, ptr %3, align 8
  store i64 %1, ptr %4, align 8
  %5 = load ptr, ptr %3, align 8
  %6 = load i64, ptr %4, align 8
  %7 = getelementptr inbounds %class.MemReporterBase, ptr %5, i32 0, i32 0
  %8 = load i64, ptr %7, align 8
  %9 = call noundef i64 @_ZN7NMTUtil15amount_in_scaleEmm(i64 noundef %6, i64 noundef %8)
  ret i64 %9
}

; Function Attrs: mustprogress nounwind uwtable
define linkonce_odr hidden noundef i64 @_ZNK13MemoryCounter5countEv(ptr noundef nonnull align 8 dereferenceable(32) %0) #1 comdat align 2 {
  %2 = alloca ptr, align 8
  store ptr %0, ptr %2, align 8
  %3 = load ptr, ptr %2, align 8
  %4 = getelementptr inbounds %class.MemoryCounter, ptr %3, i32 0, i32 0
  %5 = call noundef i64 @_ZN6Atomic4loadImEET_PVKS1_(ptr noundef %4)
  ret i64 %5
}

; Function Attrs: mustprogress nounwind uwtable
define linkonce_odr hidden noundef i64 @_ZNK13MemoryCounter4sizeEv(ptr noundef nonnull align 8 dereferenceable(32) %0) #1 comdat align 2 {
  %2 = alloca ptr, align 8
  store ptr %0, ptr %2, align 8
  %3 = load ptr, ptr %2, align 8
  %4 = getelementptr inbounds %class.MemoryCounter, ptr %3, i32 0, i32 1
  %5 = call noundef i64 @_ZN6Atomic4loadImEET_PVKS1_(ptr noundef %4)
  ret i64 %5
}

; Function Attrs: mustprogress nounwind uwtable
define linkonce_odr hidden noundef ptr @_ZNK15MemReporterBase6outputEv(ptr noundef nonnull align 8 dereferenceable(32) %0) #1 comdat align 2 {
  %2 = alloca ptr, align 8
  store ptr %0, ptr %2, align 8
  %3 = load ptr, ptr %2, align 8
  %4 = getelementptr inbounds %class.MemReporterBase, ptr %3, i32 0, i32 1
  %5 = load ptr, ptr %4, align 8
  ret ptr %5
}

; Function Attrs: mustprogress nounwind uwtable
define linkonce_odr hidden noundef ptr @_ZNK15MemReporterBase13current_scaleEv(ptr noundef nonnull align 8 dereferenceable(32) %0) #1 comdat align 2 {
  %2 = alloca ptr, align 8
  store ptr %0, ptr %2, align 8
  %3 = load ptr, ptr %2, align 8
  %4 = getelementptr inbounds %class.MemReporterBase, ptr %3, i32 0, i32 0
  %5 = load i64, ptr %4, align 8
  %6 = call noundef ptr @_ZN7NMTUtil10scale_nameEm(i64 noundef %5)
  ret ptr %6
}

; Function Attrs: mustprogress nounwind uwtable
define hidden void @_ZNK15MemReporterBase11print_arenaEPK13MemoryCounter(ptr noundef nonnull align 8 dereferenceable(32) %0, ptr noundef %1) #1 align 2 {
  %3 = alloca ptr, align 8
  %4 = alloca ptr, align 8
  %5 = alloca ptr, align 8
  %6 = alloca ptr, align 8
  %7 = alloca i64, align 8
  %8 = alloca i64, align 8
  %9 = alloca i64, align 8
  %10 = alloca i64, align 8
  store ptr %0, ptr %3, align 8
  store ptr %1, ptr %4, align 8
  %11 = load ptr, ptr %3, align 8
  %12 = call noundef ptr @_ZNK15MemReporterBase13current_scaleEv(ptr noundef nonnull align 8 dereferenceable(32) %11)
  store ptr %12, ptr %5, align 8
  %13 = call noundef ptr @_ZNK15MemReporterBase6outputEv(ptr noundef nonnull align 8 dereferenceable(32) %11)
  store ptr %13, ptr %6, align 8
  %14 = load ptr, ptr %4, align 8
  %15 = call noundef i64 @_ZNK13MemoryCounter4sizeEv(ptr noundef nonnull align 8 dereferenceable(32) %14)
  store i64 %15, ptr %7, align 8
  %16 = load ptr, ptr %4, align 8
  %17 = call noundef i64 @_ZNK13MemoryCounter5countEv(ptr noundef nonnull align 8 dereferenceable(32) %16)
  store i64 %17, ptr %8, align 8
  %18 = load ptr, ptr %6, align 8
  %19 = load i64, ptr %7, align 8
  %20 = call noundef i64 @_ZNK15MemReporterBase23amount_in_current_scaleEm(ptr noundef nonnull align 8 dereferenceable(32) %11, i64 noundef %19)
  %21 = load ptr, ptr %5, align 8
  %22 = load i64, ptr %8, align 8
  call void (ptr, ptr, ...) @_ZN12outputStream5printEPKcz(ptr noundef nonnull align 8 dereferenceable(56) %18, ptr noundef @.str.16, i64 noundef %20, ptr noundef %21, i64 noundef %22)
  %23 = load ptr, ptr %4, align 8
  %24 = call noundef i64 @_ZNK13MemoryCounter9peak_sizeEv(ptr noundef nonnull align 8 dereferenceable(32) %23)
  store i64 %24, ptr %9, align 8
  %25 = load i64, ptr %9, align 8
  %26 = load i64, ptr %7, align 8
  %27 = icmp eq i64 %25, %26
  br i1 %27, label %28, label %30

28:                                               ; preds = %2
  %29 = load ptr, ptr %6, align 8
  call void @_ZN12outputStream9print_rawEPKc(ptr noundef nonnull align 8 dereferenceable(56) %29, ptr noundef @.str.11)
  br label %43

30:                                               ; preds = %2
  %31 = load i64, ptr %9, align 8
  %32 = load i64, ptr %7, align 8
  %33 = icmp ugt i64 %31, %32
  br i1 %33, label %34, label %42

34:                                               ; preds = %30
  %35 = load ptr, ptr %4, align 8
  %36 = call noundef i64 @_ZNK13MemoryCounter10peak_countEv(ptr noundef nonnull align 8 dereferenceable(32) %35)
  store i64 %36, ptr %10, align 8
  %37 = load ptr, ptr %6, align 8
  %38 = load i64, ptr %9, align 8
  %39 = call noundef i64 @_ZNK15MemReporterBase23amount_in_current_scaleEm(ptr noundef nonnull align 8 dereferenceable(32) %11, i64 noundef %38)
  %40 = load ptr, ptr %5, align 8
  %41 = load i64, ptr %10, align 8
  call void (ptr, ptr, ...) @_ZN12outputStream5printEPKcz(ptr noundef nonnull align 8 dereferenceable(56) %37, ptr noundef @.str.12, i64 noundef %39, ptr noundef %40, i64 noundef %41)
  br label %42

42:                                               ; preds = %34, %30
  br label %43

43:                                               ; preds = %42, %28
  ret void
}