; Function Attrs: mustprogress nounwind uwtable
define hidden void @_ZNK15MemReporterBase11print_arenaEPK13MemoryCounter(ptr nocapture noundef nonnull readonly align 8 dereferenceable(32) %0, ptr noundef %1) local_unnamed_addr #0 align 2 {
  %3 = load i64, ptr %0, align 8
  %4 = tail call noundef ptr @_ZN7NMTUtil10scale_nameEm(i64 noundef %3) #7
  %5 = getelementptr inbounds i8, ptr %0, i64 8
  %6 = load ptr, ptr %5, align 8
  %7 = getelementptr inbounds i8, ptr %1, i64 8
  %8 = load volatile i64, ptr %7, align 8
  %9 = load volatile i64, ptr %1, align 8
  %10 = load i64, ptr %0, align 8
  %11 = lshr i64 %10, 1
  %12 = add i64 %11, %8
  %13 = udiv i64 %12, %10
  tail call void (ptr, ptr, ...) @_ZN12outputStream5printEPKcz(ptr noundef nonnull align 8 dereferenceable(56) %6, ptr noundef nonnull @.str.16, i64 noundef %13, ptr noundef %4, i64 noundef %9) #7
  %14 = getelementptr inbounds i8, ptr %1, i64 24
  %15 = load volatile i64, ptr %14, align 8
  %16 = icmp eq i64 %15, %8
  br i1 %16, label %17, label %18

17:                                               ; preds = %2
  tail call void @_ZN12outputStream9print_rawEPKcm(ptr noundef nonnull align 8 dereferenceable(56) %6, ptr noundef nonnull @.str.11, i64 noundef 10) #7
  br label %27

18:                                               ; preds = %2
  %19 = icmp ugt i64 %15, %8
  br i1 %19, label %20, label %27

20:                                               ; preds = %18
  %21 = getelementptr inbounds i8, ptr %1, i64 16
  %22 = load volatile i64, ptr %21, align 8
  %23 = load i64, ptr %0, align 8
  %24 = lshr i64 %23, 1
  %25 = add i64 %24, %15
  %26 = udiv i64 %25, %23
  tail call void (ptr, ptr, ...) @_ZN12outputStream5printEPKcz(ptr noundef nonnull align 8 dereferenceable(56) %6, ptr noundef nonnull @.str.12, i64 noundef %26, ptr noundef %4, i64 noundef %22) #7
  br label %27

27:                                               ; preds = %18, %20, %17
  ret void
}